target datalayout = "e-m:e-p270:32:32-p271:32:32-p272:64:64-i64:64-i128:128-f80:128-n8:16:32:64-S128"
target triple = "x86_64-pc-linux-gnu"

@hf_Tango_DevPipeData_name = internal global i32 0, align 4
@hf_Tango_DevPipeBlob_name = internal global i32 0, align 4
@hf_Tango_DevPipeBlob_blob_data_loop = internal global i32 0, align 4
@hf_Tango_TimeVal_tv_sec = internal global i32 0, align 4
@hf_Tango_TimeVal_tv_usec = internal global i32 0, align 4
@hf_Tango_TimeVal_tv_nsec = internal global i32 0, align 4
@ett_giop_struct = internal global i32 0, align 4
@ett_giop_sequence = internal global i32 0, align 4
@boundary = internal global i32 12, align 4
@.str.773 = private unnamed_addr constant [21 x i8] c"struct Tango_TimeVal\00", align 1
@.str.774 = private unnamed_addr constant [25 x i8] c"struct Tango_DevPipeBlob\00", align 1
@.str.775 = private unnamed_addr constant [37 x i8] c"sequence Tango_DevPipeBlob_blob_data\00", align 1

; Function Attrs: null_pointer_is_valid sspstrong uwtable
define internal void @decode_Tango_DevPipeBlob_st(ptr noundef %0, ptr noundef %1, ptr noundef %2, ptr noundef %3, ptr noundef %4, ptr noundef %5, ptr noundef %6, i1 noundef zeroext %7) #0 {
  %9 = alloca ptr, align 8
  %10 = alloca ptr, align 8
  %11 = alloca ptr, align 8
  %12 = alloca ptr, align 8
  %13 = alloca ptr, align 8
  %14 = alloca ptr, align 8
  %15 = alloca ptr, align 8
  %16 = alloca i8, align 1
  %17 = alloca i32, align 4
  %18 = alloca i32, align 4
  %19 = alloca ptr, align 8
  store ptr %0, ptr %9, align 8
  store ptr %1, ptr %10, align 8
  store ptr %2, ptr %11, align 8
  store ptr %3, ptr %12, align 8
  store ptr %4, ptr %13, align 8
  store ptr %5, ptr %14, align 8
  store ptr %6, ptr %15, align 8
  %20 = zext i1 %7 to i8
  store i8 %20, ptr %16, align 1
  call void @llvm.lifetime.start.p0(i64 4, ptr %17) #6
  call void @llvm.lifetime.start.p0(i64 4, ptr %18) #6
  %21 = load ptr, ptr %11, align 8
  %22 = load ptr, ptr %9, align 8
  %23 = load ptr, ptr %13, align 8
  %24 = load i8, ptr %16, align 1, !range !6, !noundef !7
  %25 = trunc i8 %24 to i1
  %26 = load i32, ptr @boundary, align 4
  %27 = load i32, ptr @hf_Tango_DevPipeBlob_name, align 4
  call void @giop_add_CDR_string(ptr noundef %21, ptr noundef %22, ptr noundef %23, i1 noundef zeroext %25, i32 noundef %26, i32 noundef %27)
  %28 = load ptr, ptr %9, align 8
  %29 = load ptr, ptr %13, align 8
  %30 = load i8, ptr %16, align 1, !range !6, !noundef !7
  %31 = trunc i8 %30 to i1
  %32 = load i32, ptr @boundary, align 4
  %33 = call i32 @get_CDR_ulong(ptr noundef %28, ptr noundef %29, i1 noundef zeroext %31, i32 noundef %32)
  store i32 %33, ptr %17, align 4
  %34 = load ptr, ptr %11, align 8
  %35 = load i32, ptr @hf_Tango_DevPipeBlob_blob_data_loop, align 4
  %36 = load ptr, ptr %9, align 8
  %37 = load ptr, ptr %13, align 8
  %38 = load i32, ptr %37, align 4
  %39 = sub i32 %38, 4
  %40 = load i32, ptr %17, align 4
  %41 = call ptr @proto_tree_add_uint(ptr noundef %34, i32 noundef %35, ptr noundef %36, i32 noundef %39, i32 noundef 4, i32 noundef %40)
  call void @llvm.lifetime.start.p0(i64 8, ptr %19) #6
  %42 = load ptr, ptr %11, align 8
  store ptr %42, ptr %19, align 8
  %43 = load ptr, ptr %11, align 8
  %44 = load ptr, ptr %9, align 8
  %45 = load ptr, ptr %13, align 8
  %46 = load i32, ptr %45, align 4
  %47 = load i32, ptr @ett_giop_sequence, align 4
  %48 = call ptr @proto_tree_add_subtree(ptr noundef %43, ptr noundef %44, i32 noundef %46, i32 noundef -1, i32 noundef %47, ptr noundef null, ptr noundef @.str.775)
  store ptr %48, ptr %11, align 8
  store i32 0, ptr %18, align 4
  br label %49

49:                                               ; preds = %54, %8
  %50 = load i32, ptr %18, align 4
  %51 = load i32, ptr %17, align 4
  %52 = icmp ult i32 %50, %51
  br i1 %52, label %53, label %57

53:                                               ; preds = %49
  br label %54

54:                                               ; preds = %53
  %55 = load i32, ptr %18, align 4
  %56 = add i32 %55, 1
  store i32 %56, ptr %18, align 4
  br label %49, !llvm.loop !51

57:                                               ; preds = %49
  %58 = load ptr, ptr %19, align 8
  store ptr %58, ptr %11, align 8
  call void @llvm.lifetime.end.p0(i64 8, ptr %19) #6
  call void @llvm.lifetime.end.p0(i64 4, ptr %18) #6
  call void @llvm.lifetime.end.p0(i64 4, ptr %17) #6
  ret void
}

; Function Attrs: null_pointer_is_valid sspstrong uwtable
define internal void @decode_Tango_TimeVal_st(ptr noundef %0, ptr noundef %1, ptr noundef %2, ptr noundef %3, ptr noundef %4, ptr noundef %5, ptr noundef %6, i1 noundef zeroext %7) #0 {
  %9 = alloca ptr, align 8
  %10 = alloca ptr, align 8
  %11 = alloca ptr, align 8
  %12 = alloca ptr, align 8
  %13 = alloca ptr, align 8
  %14 = alloca ptr, align 8
  %15 = alloca ptr, align 8
  %16 = alloca i8, align 1
  store ptr %0, ptr %9, align 8
  store ptr %1, ptr %10, align 8
  store ptr %2, ptr %11, align 8
  store ptr %3, ptr %12, align 8
  store ptr %4, ptr %13, align 8
  store ptr %5, ptr %14, align 8
  store ptr %6, ptr %15, align 8
  %17 = zext i1 %7 to i8
  store i8 %17, ptr %16, align 1
  %18 = load ptr, ptr %11, align 8
  %19 = load i32, ptr @hf_Tango_TimeVal_tv_sec, align 4
  %20 = load ptr, ptr %9, align 8
  %21 = load ptr, ptr %13, align 8
  %22 = load i32, ptr %21, align 4
  %23 = sub i32 %22, 4
  %24 = load ptr, ptr %9, align 8
  %25 = load ptr, ptr %13, align 8
  %26 = load i8, ptr %16, align 1, !range !6, !noundef !7
  %27 = trunc i8 %26 to i1
  %28 = load i32, ptr @boundary, align 4
  %29 = call i32 @get_CDR_long(ptr noundef %24, ptr noundef %25, i1 noundef zeroext %27, i32 noundef %28)
  %30 = call ptr @proto_tree_add_int(ptr noundef %18, i32 noundef %19, ptr noundef %20, i32 noundef %23, i32 noundef 4, i32 noundef %29)
  %31 = load ptr, ptr %11, align 8
  %32 = load i32, ptr @hf_Tango_TimeVal_tv_usec, align 4
  %33 = load ptr, ptr %9, align 8
  %34 = load ptr, ptr %13, align 8
  %35 = load i32, ptr %34, align 4
  %36 = sub i32 %35, 4
  %37 = load ptr, ptr %9, align 8
  %38 = load ptr, ptr %13, align 8
  %39 = load i8, ptr %16, align 1, !range !6, !noundef !7
  %40 = trunc i8 %39 to i1
  %41 = load i32, ptr @boundary, align 4
  %42 = call i32 @get_CDR_long(ptr noundef %37, ptr noundef %38, i1 noundef zeroext %40, i32 noundef %41)
  %43 = call ptr @proto_tree_add_int(ptr noundef %31, i32 noundef %32, ptr noundef %33, i32 noundef %36, i32 noundef 4, i32 noundef %42)
  %44 = load ptr, ptr %11, align 8
  %45 = load i32, ptr @hf_Tango_TimeVal_tv_nsec, align 4
  %46 = load ptr, ptr %9, align 8
  %47 = load ptr, ptr %13, align 8
  %48 = load i32, ptr %47, align 4
  %49 = sub i32 %48, 4
  %50 = load ptr, ptr %9, align 8
  %51 = load ptr, ptr %13, align 8
  %52 = load i8, ptr %16, align 1, !range !6, !noundef !7
  %53 = trunc i8 %52 to i1
  %54 = load i32, ptr @boundary, align 4
  %55 = call i32 @get_CDR_long(ptr noundef %50, ptr noundef %51, i1 noundef zeroext %53, i32 noundef %54)
  %56 = call ptr @proto_tree_add_int(ptr noundef %44, i32 noundef %45, ptr noundef %46, i32 noundef %49, i32 noundef 4, i32 noundef %55)
  ret void
}

; Function Attrs: null_pointer_is_valid sspstrong uwtable
define internal void @decode_Tango_DevPipeData_st(ptr noundef %0, ptr noundef %1, ptr noundef %2, ptr noundef %3, ptr noundef %4, ptr noundef %5, ptr noundef %6, i1 noundef zeroext %7) #0 {
  %9 = alloca ptr, align 8
  %10 = alloca ptr, align 8
  %11 = alloca ptr, align 8
  %12 = alloca ptr, align 8
  %13 = alloca ptr, align 8
  %14 = alloca ptr, align 8
  %15 = alloca ptr, align 8
  %16 = alloca i8, align 1
  %17 = alloca ptr, align 8
  %18 = alloca ptr, align 8
  store ptr %0, ptr %9, align 8
  store ptr %1, ptr %10, align 8
  store ptr %2, ptr %11, align 8
  store ptr %3, ptr %12, align 8
  store ptr %4, ptr %13, align 8
  store ptr %5, ptr %14, align 8
  store ptr %6, ptr %15, align 8
  %19 = zext i1 %7 to i8
  store i8 %19, ptr %16, align 1
  %20 = load ptr, ptr %11, align 8
  %21 = load ptr, ptr %9, align 8
  %22 = load ptr, ptr %13, align 8
  %23 = load i8, ptr %16, align 1, !range !6, !noundef !7
  %24 = trunc i8 %23 to i1
  %25 = load i32, ptr @boundary, align 4
  %26 = load i32, ptr @hf_Tango_DevPipeData_name, align 4
  call void @giop_add_CDR_string(ptr noundef %20, ptr noundef %21, ptr noundef %22, i1 noundef zeroext %24, i32 noundef %25, i32 noundef %26)
  call void @llvm.lifetime.start.p0(i64 8, ptr %17) #6
  %27 = load ptr, ptr %11, align 8
  %28 = load ptr, ptr %9, align 8
  %29 = load ptr, ptr %13, align 8
  %30 = load i32, ptr %29, align 4
  %31 = load i32, ptr @ett_giop_struct, align 4
  %32 = call ptr @proto_tree_add_subtree(ptr noundef %27, ptr noundef %28, i32 noundef %30, i32 noundef -1, i32 noundef %31, ptr noundef null, ptr noundef @.str.773)
  store ptr %32, ptr %17, align 8
  %33 = load ptr, ptr %9, align 8
  %34 = load ptr, ptr %10, align 8
  %35 = load ptr, ptr %17, align 8
  %36 = load ptr, ptr %12, align 8
  %37 = load ptr, ptr %13, align 8
  %38 = load ptr, ptr %14, align 8
  %39 = load ptr, ptr %15, align 8
  %40 = load i8, ptr %16, align 1, !range !6, !noundef !7
  %41 = trunc i8 %40 to i1
  call void @decode_Tango_TimeVal_st(ptr noundef %33, ptr noundef %34, ptr noundef %35, ptr noundef %36, ptr noundef %37, ptr noundef %38, ptr noundef %39, i1 noundef zeroext %41)
  call void @llvm.lifetime.end.p0(i64 8, ptr %17) #6
  call void @llvm.lifetime.start.p0(i64 8, ptr %18) #6
  %42 = load ptr, ptr %11, align 8
  %43 = load ptr, ptr %9, align 8
  %44 = load ptr, ptr %13, align 8
  %45 = load i32, ptr %44, align 4
  %46 = load i32, ptr @ett_giop_struct, align 4
  %47 = call ptr @proto_tree_add_subtree(ptr noundef %42, ptr noundef %43, i32 noundef %45, i32 noundef -1, i32 noundef %46, ptr noundef null, ptr noundef @.str.774)
  store ptr %47, ptr %18, align 8
  %48 = load ptr, ptr %9, align 8
  %49 = load ptr, ptr %10, align 8
  %50 = load ptr, ptr %18, align 8
  %51 = load ptr, ptr %12, align 8
  %52 = load ptr, ptr %13, align 8
  %53 = load ptr, ptr %14, align 8
  %54 = load ptr, ptr %15, align 8
  %55 = load i8, ptr %16, align 1, !range !6, !noundef !7
  %56 = trunc i8 %55 to i1
  call void @decode_Tango_DevPipeBlob_st(ptr noundef %48, ptr noundef %49, ptr noundef %50, ptr noundef %51, ptr noundef %52, ptr noundef %53, ptr noundef %54, i1 noundef zeroext %56)
  call void @llvm.lifetime.end.p0(i64 8, ptr %18) #6
  ret void
}