; Function Attrs: null_pointer_is_valid sspstrong uwtable
define internal fastcc void @decode_Tango_DevPipeData_st(ptr noundef %0, ptr noundef %1, ptr noundef %2, i1 noundef zeroext %3) unnamed_addr #0 {
  %5 = load i32, ptr @hf_Tango_DevPipeData_name, align 4
  tail call void @giop_add_CDR_string(ptr noundef %1, ptr noundef %0, ptr noundef %2, i1 noundef zeroext %3, i32 noundef 12, i32 noundef %5)
  %6 = load i32, ptr %2, align 4
  %7 = load i32, ptr @ett_giop_struct, align 4
  %8 = tail call ptr @proto_tree_add_subtree(ptr noundef %1, ptr noundef %0, i32 noundef %6, i32 noundef -1, i32 noundef %7, ptr noundef null, ptr noundef nonnull @.str.773)
  %9 = load i32, ptr @hf_Tango_TimeVal_tv_sec, align 4
  %10 = load i32, ptr %2, align 4
  %11 = add i32 %10, -4
  %12 = tail call i32 @get_CDR_long(ptr noundef %0, ptr noundef %2, i1 noundef zeroext %3, i32 noundef 12)
  %13 = tail call ptr @proto_tree_add_int(ptr noundef %8, i32 noundef %9, ptr noundef %0, i32 noundef %11, i32 noundef 4, i32 noundef %12)
  %14 = load i32, ptr @hf_Tango_TimeVal_tv_usec, align 4
  %15 = load i32, ptr %2, align 4
  %16 = add i32 %15, -4
  %17 = tail call i32 @get_CDR_long(ptr noundef %0, ptr noundef %2, i1 noundef zeroext %3, i32 noundef 12)
  %18 = tail call ptr @proto_tree_add_int(ptr noundef %8, i32 noundef %14, ptr noundef %0, i32 noundef %16, i32 noundef 4, i32 noundef %17)
  %19 = load i32, ptr @hf_Tango_TimeVal_tv_nsec, align 4
  %20 = load i32, ptr %2, align 4
  %21 = add i32 %20, -4
  %22 = tail call i32 @get_CDR_long(ptr noundef %0, ptr noundef %2, i1 noundef zeroext %3, i32 noundef 12)
  %23 = tail call ptr @proto_tree_add_int(ptr noundef %8, i32 noundef %19, ptr noundef %0, i32 noundef %21, i32 noundef 4, i32 noundef %22)
  %24 = load i32, ptr %2, align 4
  %25 = load i32, ptr @ett_giop_struct, align 4
  %26 = tail call ptr @proto_tree_add_subtree(ptr noundef %1, ptr noundef %0, i32 noundef %24, i32 noundef -1, i32 noundef %25, ptr noundef null, ptr noundef nonnull @.str.774)
  %27 = load i32, ptr @hf_Tango_DevPipeBlob_name, align 4
  tail call void @giop_add_CDR_string(ptr noundef %26, ptr noundef %0, ptr noundef %2, i1 noundef zeroext %3, i32 noundef 12, i32 noundef %27)
  %28 = tail call i32 @get_CDR_ulong(ptr noundef %0, ptr noundef %2, i1 noundef zeroext %3, i32 noundef 12)
  %29 = load i32, ptr @hf_Tango_DevPipeBlob_blob_data_loop, align 4
  %30 = load i32, ptr %2, align 4
  %31 = add i32 %30, -4
  %32 = tail call ptr @proto_tree_add_uint(ptr noundef %26, i32 noundef %29, ptr noundef %0, i32 noundef %31, i32 noundef 4, i32 noundef %28)
  %33 = load i32, ptr %2, align 4
  %34 = load i32, ptr @ett_giop_sequence, align 4
  %35 = tail call ptr @proto_tree_add_subtree(ptr noundef %26, ptr noundef %0, i32 noundef %33, i32 noundef -1, i32 noundef %34, ptr noundef null, ptr noundef nonnull @.str.775)
  ret void
}